target datalayout = "e-m:e-p270:32:32-p271:32:32-p272:64:64-i64:64-i128:128-f80:128-n8:16:32:64-S128"
target triple = "x86_64-pc-linux-gnu"

%struct.quic_info_data = type { i32, i32, ptr, i16, i32, i32, i32, %struct.quic_ciphers, %struct.quic_ciphers, %struct.quic_ciphers, %struct.quic_ciphers, %struct.quic_ciphers, %struct.quic_pp_state, %struct.quic_pp_state, [3 x i64], [3 x i64], ptr, ptr, %struct.quic_cid_item, %struct.quic_cid_item, %struct.quic_cid, ptr, ptr, ptr, ptr, ptr, ptr, ptr, ptr, ptr, ptr }
%struct.quic_ciphers = type { %struct.quic_hp_cipher, %struct.quic_pp_cipher }
%struct.quic_hp_cipher = type { ptr }
%struct.quic_pp_cipher = type { ptr, [12 x i8] }
%struct.quic_pp_state = type { ptr, [2 x %struct.quic_pp_cipher], %struct.quic_hp_cipher, i64, i8 }
%struct.quic_cid_item = type { ptr, %struct.quic_cid }
%struct.quic_cid = type { i8, [20 x i8], [16 x i8], i8, i64, i64 }
%struct.quic_datagram = type { ptr, %struct.quic_packet_info, i64, i8 }
%struct.quic_packet_info = type { ptr, i64, %struct.quic_decrypt_result, i8, i8, i8, i8 }
%struct.quic_decrypt_result = type { ptr, ptr, i32 }

@proto_quic = internal global i32 0, align 4

; Function Attrs: null_pointer_is_valid sspstrong uwtable
define hidden void @quic_add_multipath(ptr noundef %0, i32 noundef %1) #0 {
  %3 = alloca ptr, align 8
  %4 = alloca i32, align 4
  %5 = alloca ptr, align 8
  %6 = alloca ptr, align 8
  store ptr %0, ptr %3, align 8
  store i32 %1, ptr %4, align 4
  call void @llvm.lifetime.start.p0(i64 8, ptr %5) #19
  call void @llvm.lifetime.start.p0(i64 8, ptr %6) #19
  %7 = call ptr @wmem_file_scope()
  %8 = load ptr, ptr %3, align 8
  %9 = load i32, ptr @proto_quic, align 4
  %10 = call ptr @p_get_proto_data(ptr noundef %7, ptr noundef %8, i32 noundef %9, i32 noundef 0)
  store ptr %10, ptr %5, align 8
  %11 = load ptr, ptr %5, align 8
  %12 = icmp ne ptr %11, null
  br i1 %12, label %13, label %48

13:                                               ; preds = %2
  %14 = load ptr, ptr %5, align 8
  %15 = getelementptr inbounds nuw %struct.quic_datagram, ptr %14, i32 0, i32 0
  %16 = load ptr, ptr %15, align 8
  %17 = icmp ne ptr %16, null
  br i1 %17, label %18, label %48

18:                                               ; preds = %13
  %19 = load ptr, ptr %5, align 8
  %20 = getelementptr inbounds nuw %struct.quic_datagram, ptr %19, i32 0, i32 0
  %21 = load ptr, ptr %20, align 8
  store ptr %21, ptr %6, align 8
  %22 = load ptr, ptr %5, align 8
  %23 = getelementptr inbounds nuw %struct.quic_datagram, ptr %22, i32 0, i32 3
  %24 = load i8, ptr %23, align 8
  %25 = and i8 %24, 1
  %26 = trunc i8 %25 to i1
  br i1 %26, label %27, label %37

27:                                               ; preds = %18
  %28 = load i32, ptr %4, align 4
  %29 = load ptr, ptr %6, align 8
  %30 = getelementptr inbounds nuw %struct.quic_info_data, ptr %29, i32 0, i32 3
  %31 = trunc i32 %28 to i16
  %32 = load i16, ptr %30, align 8
  %33 = and i16 %31, 3
  %34 = shl i16 %33, 8
  %35 = and i16 %32, -769
  %36 = or i16 %35, %34
  store i16 %36, ptr %30, align 8
  br label %47

37:                                               ; preds = %18
  %38 = load i32, ptr %4, align 4
  %39 = load ptr, ptr %6, align 8
  %40 = getelementptr inbounds nuw %struct.quic_info_data, ptr %39, i32 0, i32 3
  %41 = trunc i32 %38 to i16
  %42 = load i16, ptr %40, align 8
  %43 = and i16 %41, 3
  %44 = shl i16 %43, 6
  %45 = and i16 %42, -193
  %46 = or i16 %45, %44
  store i16 %46, ptr %40, align 8
  br label %47

47:                                               ; preds = %37, %27
  br label %48

48:                                               ; preds = %47, %13, %2
  call void @llvm.lifetime.end.p0(i64 8, ptr %6) #19
  call void @llvm.lifetime.end.p0(i64 8, ptr %5) #19
  ret void
}