; Function Attrs: null_pointer_is_valid sspstrong uwtable
define hidden void @quic_add_multipath(ptr noundef %0, i32 noundef %1) local_unnamed_addr #0 {
  %3 = tail call ptr @wmem_file_scope()
  %4 = load i32, ptr @proto_quic, align 4
  %5 = tail call ptr @p_get_proto_data(ptr noundef %3, ptr noundef %0, i32 noundef %4, i32 noundef 0)
  %.not = icmp eq ptr %5, null
  br i1 %.not, label %18, label %6

6:                                                ; preds = %2
  %7 = load ptr, ptr %5, align 8
  %.not9 = icmp eq ptr %7, null
  br i1 %.not9, label %18, label %.sink.split

.sink.split:                                      ; preds = %6
  %8 = getelementptr inbounds nuw i8, ptr %5, i64 64
  %9 = load i8, ptr %8, align 8
  %10 = trunc i8 %9 to i1
  %11 = getelementptr inbounds nuw i8, ptr %7, i64 16
  %12 = trunc i32 %1 to i16
  %13 = load i16, ptr %11, align 8
  %. = select i1 %10, i16 8, i16 6
  %.15 = select i1 %10, i16 768, i16 192
  %.16 = select i1 %10, i16 -769, i16 -193
  %14 = shl i16 %12, %.
  %15 = and i16 %14, %.15
  %16 = and i16 %13, %.16
  %17 = or disjoint i16 %16, %15
  store i16 %17, ptr %11, align 8
  br label %18

18:                                               ; preds = %.sink.split, %6, %2
  ret void
}